target datalayout = "e-m:e-p270:32:32-p271:32:32-p272:64:64-i64:64-i128:128-f80:128-n8:16:32:64-S128"
target triple = "x86_64-pc-linux-gnu"

; Function Attrs: uwtable
define hidden void @_ZTvn56_n88_NK5osgeo4proj9operation10Conversion13_exportToJSONEPNS0_2io13JSONFormatterE(ptr noundef %0, ptr noundef %1) unnamed_addr #8 align 2 {
  %3 = alloca ptr, align 8
  %4 = alloca ptr, align 8
  store ptr %0, ptr %3, align 8, !tbaa !3
  store ptr %1, ptr %4, align 8, !tbaa !196
  %5 = load ptr, ptr %3, align 8
  %6 = getelementptr inbounds i8, ptr %5, i64 -56
  %7 = load ptr, ptr %6, align 8, !tbaa !14
  %8 = getelementptr inbounds i8, ptr %7, i64 -88
  %9 = load i64, ptr %8, align 8
  %10 = getelementptr inbounds i8, ptr %6, i64 %9
  %11 = load ptr, ptr %4, align 8, !tbaa !196
  tail call void @_ZNK5osgeo4proj9operation10Conversion13_exportToJSONEPNS0_2io13JSONFormatterE(ptr noundef nonnull align 8 dereferenceable(24) %10, ptr noundef %11)
  ret void
}